target datalayout = "e-m:e-p270:32:32-p271:32:32-p272:64:64-i64:64-i128:128-f80:128-n8:16:32:64-S128"
target triple = "x86_64-pc-linux-gnu"

%struct.expert_field = type { i32, i32 }

@hf_pfcp_availability_type = internal global i32 0, align 4
@hf_pfcp_availability_status = internal global i32 0, align 4
@ei_pfcp_ie_data_not_decoded = internal global %struct.expert_field zeroinitializer, align 4

; Function Attrs: null_pointer_is_valid sspstrong uwtable
define internal void @dissect_pfcp_access_availability_information(ptr noundef %0, ptr noundef %1, ptr noundef %2, ptr noundef %3, i16 noundef zeroext %4, i8 noundef zeroext %5, ptr noundef %6) #0 {
  %8 = alloca ptr, align 8
  %9 = alloca ptr, align 8
  %10 = alloca ptr, align 8
  %11 = alloca ptr, align 8
  %12 = alloca i16, align 2
  %13 = alloca i8, align 1
  %14 = alloca ptr, align 8
  %15 = alloca i32, align 4
  store ptr %0, ptr %8, align 8
  store ptr %1, ptr %9, align 8
  store ptr %2, ptr %10, align 8
  store ptr %3, ptr %11, align 8
  store i16 %4, ptr %12, align 2
  store i8 %5, ptr %13, align 1
  store ptr %6, ptr %14, align 8
  call void @llvm.lifetime.start.p0(i64 4, ptr %15) #13
  store i32 0, ptr %15, align 4
  %16 = load ptr, ptr %10, align 8
  %17 = load i32, ptr @hf_pfcp_availability_status, align 4
  %18 = load ptr, ptr %8, align 8
  %19 = load i32, ptr %15, align 4
  %20 = call ptr @proto_tree_add_item(ptr noundef %16, i32 noundef %17, ptr noundef %18, i32 noundef %19, i32 noundef 1, i32 noundef 0)
  %21 = load ptr, ptr %10, align 8
  %22 = load i32, ptr @hf_pfcp_availability_type, align 4
  %23 = load ptr, ptr %8, align 8
  %24 = load i32, ptr %15, align 4
  %25 = call ptr @proto_tree_add_item(ptr noundef %21, i32 noundef %22, ptr noundef %23, i32 noundef %24, i32 noundef 1, i32 noundef 0)
  %26 = load i32, ptr %15, align 4
  %27 = add i32 %26, 1
  store i32 %27, ptr %15, align 4
  %28 = load i32, ptr %15, align 4
  %29 = load i16, ptr %12, align 2
  %30 = zext i16 %29 to i32
  %31 = icmp slt i32 %28, %30
  br i1 %31, label %32, label %40

32:                                               ; preds = %7
  %33 = load ptr, ptr %10, align 8
  %34 = load ptr, ptr %9, align 8
  %35 = load ptr, ptr %8, align 8
  %36 = load i32, ptr %15, align 4
  %37 = load i16, ptr %12, align 2
  %38 = zext i16 %37 to i32
  %39 = call ptr @proto_tree_add_expert(ptr noundef %33, ptr noundef %34, ptr noundef @ei_pfcp_ie_data_not_decoded, ptr noundef %35, i32 noundef %36, i32 noundef %38)
  br label %40

40:                                               ; preds = %32, %7
  call void @llvm.lifetime.end.p0(i64 4, ptr %15) #13
  ret void
}